; Function Attrs: mustprogress uwtable
define void @_ZN11TrafficTree15useFilterActionEv(ptr noundef nonnull align 8 dereferenceable(88) %0) #0 align 2 personality ptr @__gxx_personality_v0 {
  %2 = alloca %class.QString, align 8
  %3 = alloca %class.QVariant, align 8
  %4 = alloca %class.QString, align 8
  %5 = tail call noundef ptr @_ZNK7QObject6senderEv(ptr noundef nonnull align 8 dereferenceable(16) %0)
  %6 = tail call noundef ptr @_ZNK11QMetaObject4castEPK7QObject(ptr noundef nonnull align 8 dereferenceable(56) @_ZN12FilterAction16staticMetaObjectE, ptr noundef %5)
  %.not = icmp eq ptr %6, null
  br i1 %.not, label %_ZN7QStringD2Ev.exit21, label %7

7:                                                ; preds = %1
  %8 = getelementptr inbounds i8, ptr %0, i64 40
  %9 = load i8, ptr %8, align 8
  %10 = and i8 %9, 1
  %.not10 = icmp eq i8 %10, 0
  br i1 %.not10, label %_ZN7QStringD2Ev.exit21, label %11

11:                                               ; preds = %7
  call void @_ZNK7QObject8propertyEPKc(ptr dead_on_unwind nonnull writable sret(%class.QVariant) align 8 %3, ptr noundef nonnull align 8 dereferenceable(16) %6, ptr noundef nonnull @.str.17)
  invoke void @_ZNK8QVariant8toStringEv(ptr dead_on_unwind nonnull writable sret(%class.QString) align 8 %2, ptr noundef nonnull align 8 dereferenceable(32) %3)
          to label %12 unwind label %37

12:                                               ; preds = %11
  call void @_ZN8QVariantD1Ev(ptr noundef nonnull align 8 dereferenceable(32) %3) #24
  %13 = getelementptr inbounds i8, ptr %2, i64 16
  %14 = load i64, ptr %13, align 8
  %15 = icmp sgt i64 %14, 0
  br i1 %15, label %16, label %_ZN7QStringD2Ev.exit

16:                                               ; preds = %12
  %17 = load ptr, ptr @mainApp, align 8
  %18 = invoke noundef ptr @_ZN15MainApplication10mainWindowEv(ptr noundef nonnull align 8 dereferenceable(216) %17)
          to label %19 unwind label %39

19:                                               ; preds = %16
  %20 = load ptr, ptr %2, align 8
  store ptr %20, ptr %4, align 8
  %21 = getelementptr inbounds i8, ptr %4, i64 8
  %22 = getelementptr inbounds i8, ptr %2, i64 8
  %23 = load ptr, ptr %22, align 8
  store ptr %23, ptr %21, align 8
  %24 = getelementptr inbounds i8, ptr %4, i64 16
  %25 = load i64, ptr %13, align 8
  store i64 %25, ptr %24, align 8
  %.not.i.i.i = icmp eq ptr %20, null
  br i1 %.not.i.i.i, label %_ZN7QStringC2ERKS_.exit, label %26

26:                                               ; preds = %19
  %27 = atomicrmw add ptr %20, i32 1 seq_cst, align 4
  br label %_ZN7QStringC2ERKS_.exit

_ZN7QStringC2ERKS_.exit:                          ; preds = %19, %26
  %28 = getelementptr inbounds i8, ptr %6, i64 16
  %29 = load i32, ptr %28, align 8
  %30 = getelementptr inbounds i8, ptr %6, i64 20
  %31 = load i32, ptr %30, align 4
  invoke void @_ZN10MainWindow16setDisplayFilterE7QStringN12FilterAction6ActionENS1_10ActionTypeE(ptr noundef nonnull align 8 dereferenceable(272) %18, ptr noundef nonnull %4, i32 noundef %29, i32 noundef %31)
          to label %32 unwind label %41

32:                                               ; preds = %_ZN7QStringC2ERKS_.exit
  %33 = load ptr, ptr %4, align 8
  %.not.i.i.i13 = icmp eq ptr %33, null
  br i1 %.not.i.i.i13, label %_ZN7QStringD2Ev.exit, label %_ZN17QArrayDataPointerIDsE5derefEv.exit.i.i

_ZN17QArrayDataPointerIDsE5derefEv.exit.i.i:      ; preds = %32
  %34 = atomicrmw sub ptr %33, i32 1 seq_cst, align 4
  %.not.i.i = icmp eq i32 %34, 1
  br i1 %.not.i.i, label %35, label %_ZN7QStringD2Ev.exit

35:                                               ; preds = %_ZN17QArrayDataPointerIDsE5derefEv.exit.i.i
  %36 = load ptr, ptr %4, align 8
  call void @_ZN10QArrayData10deallocateEPS_xx(ptr noundef %36, i64 noundef 2, i64 noundef 8) #24
  br label %_ZN7QStringD2Ev.exit

37:                                               ; preds = %11
  %38 = landingpad { ptr, i32 }
          cleanup
  call void @_ZN8QVariantD1Ev(ptr noundef nonnull align 8 dereferenceable(32) %3) #24
  br label %_ZN7QStringD2Ev.exit25

39:                                               ; preds = %16
  %40 = landingpad { ptr, i32 }
          cleanup
  br label %_ZN7QStringD2Ev.exit17

41:                                               ; preds = %_ZN7QStringC2ERKS_.exit
  %42 = landingpad { ptr, i32 }
          cleanup
  %43 = load ptr, ptr %4, align 8
  %.not.i.i.i14 = icmp eq ptr %43, null
  br i1 %.not.i.i.i14, label %_ZN7QStringD2Ev.exit17, label %_ZN17QArrayDataPointerIDsE5derefEv.exit.i.i15

_ZN17QArrayDataPointerIDsE5derefEv.exit.i.i15:    ; preds = %41
  %44 = atomicrmw sub ptr %43, i32 1 seq_cst, align 4
  %.not.i.i16 = icmp eq i32 %44, 1
  br i1 %.not.i.i16, label %45, label %_ZN7QStringD2Ev.exit17

45:                                               ; preds = %_ZN17QArrayDataPointerIDsE5derefEv.exit.i.i15
  %46 = load ptr, ptr %4, align 8
  call void @_ZN10QArrayData10deallocateEPS_xx(ptr noundef %46, i64 noundef 2, i64 noundef 8) #24
  br label %_ZN7QStringD2Ev.exit17

_ZN7QStringD2Ev.exit:                             ; preds = %35, %_ZN17QArrayDataPointerIDsE5derefEv.exit.i.i, %32, %12
  %47 = load ptr, ptr %2, align 8
  %.not.i.i.i18 = icmp eq ptr %47, null
  br i1 %.not.i.i.i18, label %_ZN7QStringD2Ev.exit21, label %_ZN17QArrayDataPointerIDsE5derefEv.exit.i.i19

_ZN17QArrayDataPointerIDsE5derefEv.exit.i.i19:    ; preds = %_ZN7QStringD2Ev.exit
  %48 = atomicrmw sub ptr %47, i32 1 seq_cst, align 4
  %.not.i.i20 = icmp eq i32 %48, 1
  br i1 %.not.i.i20, label %49, label %_ZN7QStringD2Ev.exit21

49:                                               ; preds = %_ZN17QArrayDataPointerIDsE5derefEv.exit.i.i19
  %50 = load ptr, ptr %2, align 8
  call void @_ZN10QArrayData10deallocateEPS_xx(ptr noundef %50, i64 noundef 2, i64 noundef 8) #24
  br label %_ZN7QStringD2Ev.exit21

_ZN7QStringD2Ev.exit21:                           ; preds = %49, %_ZN17QArrayDataPointerIDsE5derefEv.exit.i.i19, %_ZN7QStringD2Ev.exit, %1, %7
  ret void

_ZN7QStringD2Ev.exit17:                           ; preds = %45, %_ZN17QArrayDataPointerIDsE5derefEv.exit.i.i15, %41, %39
  %.pn = phi { ptr, i32 } [ %40, %39 ], [ %42, %41 ], [ %42, %_ZN17QArrayDataPointerIDsE5derefEv.exit.i.i15 ], [ %42, %45 ]
  %51 = load ptr, ptr %2, align 8
  %.not.i.i.i22 = icmp eq ptr %51, null
  br i1 %.not.i.i.i22, label %_ZN7QStringD2Ev.exit25, label %_ZN17QArrayDataPointerIDsE5derefEv.exit.i.i23

_ZN17QArrayDataPointerIDsE5derefEv.exit.i.i23:    ; preds = %_ZN7QStringD2Ev.exit17
  %52 = atomicrmw sub ptr %51, i32 1 seq_cst, align 4
  %.not.i.i24 = icmp eq i32 %52, 1
  br i1 %.not.i.i24, label %53, label %_ZN7QStringD2Ev.exit25

53:                                               ; preds = %_ZN17QArrayDataPointerIDsE5derefEv.exit.i.i23
  %54 = load ptr, ptr %2, align 8
  call void @_ZN10QArrayData10deallocateEPS_xx(ptr noundef %54, i64 noundef 2, i64 noundef 8) #24
  br label %_ZN7QStringD2Ev.exit25

_ZN7QStringD2Ev.exit25:                           ; preds = %53, %_ZN17QArrayDataPointerIDsE5derefEv.exit.i.i23, %_ZN7QStringD2Ev.exit17, %37
  %.pn.pn = phi { ptr, i32 } [ %38, %37 ], [ %.pn, %_ZN7QStringD2Ev.exit17 ], [ %.pn, %_ZN17QArrayDataPointerIDsE5derefEv.exit.i.i23 ], [ %.pn, %53 ]
  resume { ptr, i32 } %.pn.pn
}